; Function Attrs: mustprogress nofree norecurse nosync nounwind willreturn memory(argmem: read) uwtable
define ptr @lv_subject_get_pointer(ptr noundef readonly captures(none) %0) local_unnamed_addr #2 {
  %2 = getelementptr inbounds nuw i8, ptr %0, i64 48
  %3 = load i32, ptr %2, align 8
  %4 = and i32 %3, 15
  %.not = icmp eq i32 %4, 3
  br i1 %.not, label %5, label %8

5:                                                ; preds = %1
  %6 = getelementptr inbounds nuw i8, ptr %0, i64 24
  %7 = load ptr, ptr %6, align 8, !tbaa !3
  br label %8

8:                                                ; preds = %1, %5
  %.0 = phi ptr [ %7, %5 ], [ null, %1 ]
  ret ptr %.0
}